target datalayout = "e-m:e-p270:32:32-p271:32:32-p272:64:64-i64:64-i128:128-f80:128-n8:16:32:64-S128"
target triple = "x86_64-pc-linux-gnu"

%struct.mbedtls_ssl_context = type { ptr, i32, i32, i32, i32, i32, ptr, ptr, ptr, ptr, ptr, ptr, ptr, ptr, ptr, ptr, ptr, ptr, ptr, ptr, ptr, ptr, ptr, ptr, ptr, ptr, ptr, ptr, ptr, ptr, ptr, ptr, ptr, i32, i64, i64, i16, i64, i64, i64, i64, i32, i32, i8, i8, i32, i8, ptr, ptr, ptr, ptr, ptr, ptr, ptr, i32, i64, i64, [8 x i8], i16, ptr, ptr, ptr, i64, i32, i64, [12 x i8], [12 x i8], [32 x i8], i8, i8, ptr, ptr, %union.mbedtls_ssl_user_data_t }
%union.mbedtls_ssl_user_data_t = type { i64 }

; Function Attrs: inlinehint nounwind uwtable
define internal i32 @mbedtls_ssl_tls13_sig_alg_for_cert_verify_is_supported(i16 noundef zeroext %0) #3 {
  %2 = alloca i32, align 4
  %3 = alloca i16, align 2
  store i16 %0, ptr %3, align 2, !tbaa !92
  %4 = load i16, ptr %3, align 2, !tbaa !92
  %5 = zext i16 %4 to i32
  switch i32 %5, label %6 [
    i32 1027, label %7
    i32 1283, label %7
    i32 1539, label %7
    i32 2052, label %7
    i32 2053, label %7
    i32 2054, label %7
  ]

6:                                                ; preds = %1
  store i32 0, ptr %2, align 4
  br label %8

7:                                                ; preds = %1, %1, %1, %1, %1, %1
  store i32 1, ptr %2, align 4
  br label %8

8:                                                ; preds = %7, %6
  %9 = load i32, ptr %2, align 4
  ret i32 %9
}

; Function Attrs: inlinehint nounwind uwtable
define internal i32 @mbedtls_ssl_tls13_sig_alg_is_supported(i16 noundef zeroext %0) #3 {
  %2 = alloca i32, align 4
  %3 = alloca i16, align 2
  store i16 %0, ptr %3, align 2, !tbaa !92
  %4 = load i16, ptr %3, align 2, !tbaa !92
  %5 = zext i16 %4 to i32
  switch i32 %5, label %6 [
    i32 1025, label %9
    i32 1281, label %9
    i32 1537, label %9
  ]

6:                                                ; preds = %1
  %7 = load i16, ptr %3, align 2, !tbaa !92
  %8 = call i32 @mbedtls_ssl_tls13_sig_alg_for_cert_verify_is_supported(i16 noundef zeroext %7)
  store i32 %8, ptr %2, align 4
  br label %10

9:                                                ; preds = %1, %1, %1
  store i32 1, ptr %2, align 4
  br label %10

10:                                               ; preds = %9, %6
  %11 = load i32, ptr %2, align 4
  ret i32 %11
}

; Function Attrs: inlinehint nounwind uwtable
define internal i32 @mbedtls_ssl_tls12_sig_alg_is_supported(i16 noundef zeroext %0) #3 {
  %2 = alloca i32, align 4
  %3 = alloca i16, align 2
  %4 = alloca i8, align 1
  %5 = alloca i8, align 1
  %6 = alloca i32, align 4
  store i16 %0, ptr %3, align 2, !tbaa !92
  call void @llvm.lifetime.start.p0(i64 1, ptr %4) #11
  %7 = load i16, ptr %3, align 2, !tbaa !92
  %8 = zext i16 %7 to i32
  %9 = ashr i32 %8, 8
  %10 = and i32 %9, 255
  %11 = trunc i32 %10 to i8
  store i8 %11, ptr %4, align 1, !tbaa !24
  call void @llvm.lifetime.start.p0(i64 1, ptr %5) #11
  %12 = load i16, ptr %3, align 2, !tbaa !92
  %13 = zext i16 %12 to i32
  %14 = and i32 %13, 255
  %15 = trunc i32 %14 to i8
  store i8 %15, ptr %5, align 1, !tbaa !24
  %16 = load i8, ptr %4, align 1, !tbaa !24
  %17 = zext i8 %16 to i32
  switch i32 %17, label %18 [
    i32 1, label %19
    i32 2, label %19
    i32 3, label %19
    i32 4, label %19
    i32 5, label %19
    i32 6, label %19
  ]

18:                                               ; preds = %1
  store i32 0, ptr %2, align 4
  store i32 1, ptr %6, align 4
  br label %24

19:                                               ; preds = %1, %1, %1, %1, %1, %1
  %20 = load i8, ptr %5, align 1, !tbaa !24
  %21 = zext i8 %20 to i32
  switch i32 %21, label %22 [
    i32 1, label %23
    i32 3, label %23
  ]

22:                                               ; preds = %19
  store i32 0, ptr %2, align 4
  store i32 1, ptr %6, align 4
  br label %24

23:                                               ; preds = %19, %19
  store i32 1, ptr %2, align 4
  store i32 1, ptr %6, align 4
  br label %24

24:                                               ; preds = %23, %22, %18
  call void @llvm.lifetime.end.p0(i64 1, ptr %5) #11
  call void @llvm.lifetime.end.p0(i64 1, ptr %4) #11
  %25 = load i32, ptr %2, align 4
  ret i32 %25
}

; Function Attrs: inlinehint nounwind uwtable
define internal i32 @mbedtls_ssl_sig_alg_is_supported(ptr noundef %0, i16 noundef zeroext %1) #3 {
  %3 = alloca i32, align 4
  %4 = alloca ptr, align 8
  %5 = alloca i16, align 2
  store ptr %0, ptr %4, align 8, !tbaa !3
  store i16 %1, ptr %5, align 2, !tbaa !92
  %6 = load ptr, ptr %4, align 8, !tbaa !3
  %7 = getelementptr inbounds nuw %struct.mbedtls_ssl_context, ptr %6, i32 0, i32 4
  %8 = load i32, ptr %7, align 4, !tbaa !68
  %9 = icmp eq i32 %8, 771
  br i1 %9, label %10, label %13

10:                                               ; preds = %2
  %11 = load i16, ptr %5, align 2, !tbaa !92
  %12 = call i32 @mbedtls_ssl_tls12_sig_alg_is_supported(i16 noundef zeroext %11)
  store i32 %12, ptr %3, align 4
  br label %22

13:                                               ; preds = %2
  %14 = load ptr, ptr %4, align 8, !tbaa !3
  %15 = getelementptr inbounds nuw %struct.mbedtls_ssl_context, ptr %14, i32 0, i32 4
  %16 = load i32, ptr %15, align 4, !tbaa !68
  %17 = icmp eq i32 %16, 772
  br i1 %17, label %18, label %21

18:                                               ; preds = %13
  %19 = load i16, ptr %5, align 2, !tbaa !92
  %20 = call i32 @mbedtls_ssl_tls13_sig_alg_is_supported(i16 noundef zeroext %19)
  store i32 %20, ptr %3, align 4
  br label %22

21:                                               ; preds = %13
  store i32 0, ptr %3, align 4
  br label %22

22:                                               ; preds = %21, %18, %10
  %23 = load i32, ptr %3, align 4
  ret i32 %23
}