; Function Attrs: inlinehint mustprogress nofree norecurse nosync nounwind willreturn memory(none) uwtable
define internal fastcc range(i32 0, 2) i32 @mbedtls_ssl_sig_alg_is_supported(i32 %.20.val, i16 noundef zeroext %0) unnamed_addr #11 {
  switch i32 %.20.val, label %mbedtls_ssl_tls13_sig_alg_is_supported.exit [
    i32 771, label %2
    i32 772, label %5
  ]

2:                                                ; preds = %1
  %3 = lshr i16 %0, 8
  %trunc.i = trunc nuw i16 %3 to i8
  %trunc.off.i = add i8 %trunc.i, -1
  %switch.i = icmp ult i8 %trunc.off.i, 6
  %trunc5.i = trunc i16 %0 to i8
  %4 = add i8 %trunc5.i, -1
  %switch.and.i = and i8 %4, -3
  %switch.selectcmp.i = icmp eq i8 %switch.and.i, 0
  %narrow.i = and i1 %switch.i, %switch.selectcmp.i
  %.0.i = zext i1 %narrow.i to i32
  br label %mbedtls_ssl_tls13_sig_alg_is_supported.exit

5:                                                ; preds = %1
  switch i16 %0, label %mbedtls_ssl_tls13_sig_alg_for_cert_verify_is_supported.exit.fold.split.i [
    i16 1025, label %mbedtls_ssl_tls13_sig_alg_is_supported.exit
    i16 1281, label %mbedtls_ssl_tls13_sig_alg_is_supported.exit
    i16 1537, label %mbedtls_ssl_tls13_sig_alg_is_supported.exit
    i16 1027, label %mbedtls_ssl_tls13_sig_alg_is_supported.exit
    i16 1283, label %mbedtls_ssl_tls13_sig_alg_is_supported.exit
    i16 1539, label %mbedtls_ssl_tls13_sig_alg_is_supported.exit
    i16 2052, label %mbedtls_ssl_tls13_sig_alg_is_supported.exit
    i16 2053, label %mbedtls_ssl_tls13_sig_alg_is_supported.exit
    i16 2054, label %mbedtls_ssl_tls13_sig_alg_is_supported.exit
  ]

mbedtls_ssl_tls13_sig_alg_for_cert_verify_is_supported.exit.fold.split.i: ; preds = %5
  br label %mbedtls_ssl_tls13_sig_alg_is_supported.exit

mbedtls_ssl_tls13_sig_alg_is_supported.exit:      ; preds = %mbedtls_ssl_tls13_sig_alg_for_cert_verify_is_supported.exit.fold.split.i, %5, %5, %5, %5, %5, %5, %5, %5, %5, %1, %2
  %.0 = phi i32 [ %.0.i, %2 ], [ 0, %1 ], [ 1, %5 ], [ 1, %5 ], [ 1, %5 ], [ 0, %mbedtls_ssl_tls13_sig_alg_for_cert_verify_is_supported.exit.fold.split.i ], [ 1, %5 ], [ 1, %5 ], [ 1, %5 ], [ 1, %5 ], [ 1, %5 ], [ 1, %5 ]
  ret i32 %.0
}